target datalayout = "e-m:e-p270:32:32-p271:32:32-p272:64:64-i64:64-i128:128-f80:128-n8:16:32:64-S128"
target triple = "x86_64-pc-linux-gnu"

@pack_garbage = internal global { ptr, i64, i64, i8, [7 x i8], ptr } { ptr null, i64 0, i64 0, i8 1, [7 x i8] zeroinitializer, ptr null }, align 8

; Function Attrs: nounwind uwtable
define internal void @report_pack_garbage(i32 noundef %0, ptr noundef %1) #0 {
  %3 = alloca i32, align 4
  %4 = alloca ptr, align 8
  store i32 %0, ptr %3, align 4, !tbaa !4
  store ptr %1, ptr %4, align 8, !tbaa !11
  %5 = load i32, ptr %3, align 4, !tbaa !4
  %6 = icmp eq i32 %5, 2
  br i1 %6, label %7, label %10

7:                                                ; preds = %2
  %8 = load ptr, ptr %4, align 8, !tbaa !11
  %9 = call ptr @string_list_append(ptr noundef @pack_garbage, ptr noundef %8)
  br label %10

10:                                               ; preds = %7, %2
  ret void
}