; Function Attrs: nounwind uwtable
define internal void @report_pack_garbage(i32 noundef %0, ptr noundef %1) #0 {
  %3 = icmp eq i32 %0, 2
  br i1 %3, label %4, label %6

4:                                                ; preds = %2
  %5 = tail call ptr @string_list_append(ptr noundef nonnull @pack_garbage, ptr noundef %1) #21
  br label %6

6:                                                ; preds = %4, %2
  ret void
}